target datalayout = "e-m:e-p270:32:32-p271:32:32-p272:64:64-i64:64-i128:128-f80:128-n8:16:32:64-S128"
target triple = "x86_64-pc-linux-gnu"

%class.PhaseIFG = type { %class.Phase, ptr, i8, ptr, i32, ptr, ptr }
%class.Phase = type { i32, ptr }
%class.IndexSet = type { i32, i32, ptr, [16 x ptr], i32, ptr }
%class.LRG = type { double, double, double, ptr, i32, i32, i32, i32, i32, i32, %class.RegMask, i32, i16, i32, i16, i16 }
%class.RegMask = type { %union.anon, i32, i32 }
%union.anon = type { [11 x i64] }
%class.IndexSetIterator = type { i64, i32, i32, i32, i32, ptr, ptr, ptr }

; Function Attrs: mustprogress nounwind uwtable
define linkonce_odr hidden noundef i32 @_Z23count_trailing_zeros_64m(i64 noundef %0) #1 comdat {
  %2 = alloca i64, align 8
  store i64 %0, ptr %2, align 8
  %3 = load i64, ptr %2, align 8
  %4 = call i64 @llvm.cttz.i64(i64 %3, i1 true)
  %5 = trunc i64 %4 to i32
  ret i32 %5
}

; Function Attrs: mustprogress nounwind uwtable
define linkonce_odr hidden noundef i32 @_Z20count_trailing_zerosImTnNSt9enable_ifIXcvbsr3std11is_integralIT_EE5valueEiE4typeELi0ETnNS0_IXcvblestS1_Lm8EEiE4typeELi0EEjS1_(i64 noundef %0) #1 comdat {
  %2 = alloca i64, align 8
  store i64 %0, ptr %2, align 8
  %3 = load i64, ptr %2, align 8
  %4 = call noundef i32 @_Z23count_trailing_zeros_64m(i64 noundef %3)
  ret i32 %4
}

; Function Attrs: mustprogress nounwind uwtable
define linkonce_odr hidden noundef i32 @_ZN16IndexSetIterator10next_valueEv(ptr noundef nonnull align 8 dereferenceable(48) %0) #1 comdat align 2 {
  %2 = alloca ptr, align 8
  %3 = alloca i64, align 8
  %4 = alloca i32, align 4
  store ptr %0, ptr %2, align 8
  %5 = load ptr, ptr %2, align 8
  %6 = getelementptr inbounds %class.IndexSetIterator, ptr %5, i32 0, i32 0
  %7 = load i64, ptr %6, align 8
  store i64 %7, ptr %3, align 8
  %8 = load i64, ptr %3, align 8
  %9 = call noundef i32 @_Z20count_trailing_zerosImTnNSt9enable_ifIXcvbsr3std11is_integralIT_EE5valueEiE4typeELi0ETnNS0_IXcvblestS1_Lm8EEiE4typeELi0EEjS1_(i64 noundef %8)
  store i32 %9, ptr %4, align 4
  %10 = load i64, ptr %3, align 8
  %11 = load i32, ptr %4, align 4
  %12 = zext i32 %11 to i64
  %13 = lshr i64 %10, %12
  %14 = sub i64 %13, 1
  %15 = getelementptr inbounds %class.IndexSetIterator, ptr %5, i32 0, i32 0
  store i64 %14, ptr %15, align 8
  %16 = load i32, ptr %4, align 4
  %17 = getelementptr inbounds %class.IndexSetIterator, ptr %5, i32 0, i32 1
  %18 = load i32, ptr %17, align 8
  %19 = add i32 %18, %16
  store i32 %19, ptr %17, align 8
  %20 = getelementptr inbounds %class.IndexSetIterator, ptr %5, i32 0, i32 1
  %21 = load i32, ptr %20, align 8
  ret i32 %21
}

; Function Attrs: mustprogress nounwind uwtable
define linkonce_odr hidden noundef i32 @_Z4MAX2IiET_S0_S0_(i32 noundef %0, i32 noundef %1) #1 comdat {
  %3 = alloca i32, align 4
  %4 = alloca i32, align 4
  store i32 %0, ptr %3, align 4
  store i32 %1, ptr %4, align 4
  %5 = load i32, ptr %3, align 4
  %6 = load i32, ptr %4, align 4
  %7 = icmp sgt i32 %5, %6
  br i1 %7, label %8, label %10

8:                                                ; preds = %2
  %9 = load i32, ptr %3, align 4
  br label %12

10:                                               ; preds = %2
  %11 = load i32, ptr %4, align 4
  br label %12

12:                                               ; preds = %10, %8
  %13 = phi i32 [ %9, %8 ], [ %11, %10 ]
  ret i32 %13
}

; Function Attrs: mustprogress nounwind uwtable
define linkonce_odr hidden noundef i32 @_ZN16IndexSetIterator4nextEv(ptr noundef nonnull align 8 dereferenceable(48) %0) #1 comdat align 2 {
  %2 = alloca i32, align 4
  %3 = alloca ptr, align 8
  store ptr %0, ptr %3, align 8
  %4 = load ptr, ptr %3, align 8
  %5 = getelementptr inbounds %class.IndexSetIterator, ptr %4, i32 0, i32 0
  %6 = load i64, ptr %5, align 8
  %7 = icmp ne i64 %6, 0
  br i1 %7, label %8, label %10

8:                                                ; preds = %1
  %9 = call noundef i32 @_ZN16IndexSetIterator10next_valueEv(ptr noundef nonnull align 8 dereferenceable(48) %4)
  store i32 %9, ptr %2, align 4
  br label %23

10:                                               ; preds = %1
  %11 = getelementptr inbounds %class.IndexSetIterator, ptr %4, i32 0, i32 2
  %12 = load i32, ptr %11, align 4
  %13 = icmp ult i32 %12, 4
  br i1 %13, label %20, label %14

14:                                               ; preds = %10
  %15 = getelementptr inbounds %class.IndexSetIterator, ptr %4, i32 0, i32 3
  %16 = load i32, ptr %15, align 8
  %17 = getelementptr inbounds %class.IndexSetIterator, ptr %4, i32 0, i32 4
  %18 = load i32, ptr %17, align 4
  %19 = icmp ult i32 %16, %18
  br i1 %19, label %20, label %22

20:                                               ; preds = %14, %10
  %21 = call noundef i32 @_ZN16IndexSetIterator16advance_and_nextEv(ptr noundef nonnull align 8 dereferenceable(48) %4)
  store i32 %21, ptr %2, align 4
  br label %23

22:                                               ; preds = %14
  store i32 0, ptr %2, align 4
  br label %23

23:                                               ; preds = %22, %20, %8
  %24 = load i32, ptr %2, align 4
  ret i32 %24
}

; Function Attrs: mustprogress nounwind uwtable
define linkonce_odr hidden void @_ZN16IndexSetIteratorC2EP8IndexSet(ptr noundef nonnull align 8 dereferenceable(48) %0, ptr noundef %1) unnamed_addr #1 comdat align 2 {
  %3 = alloca ptr, align 8
  %4 = alloca ptr, align 8
  store ptr %0, ptr %3, align 8
  store ptr %1, ptr %4, align 8
  %5 = load ptr, ptr %3, align 8
  %6 = getelementptr inbounds %class.IndexSetIterator, ptr %5, i32 0, i32 0
  store i64 0, ptr %6, align 8
  %7 = getelementptr inbounds %class.IndexSetIterator, ptr %5, i32 0, i32 1
  store i32 0, ptr %7, align 8
  %8 = getelementptr inbounds %class.IndexSetIterator, ptr %5, i32 0, i32 2
  store i32 4, ptr %8, align 4
  %9 = getelementptr inbounds %class.IndexSetIterator, ptr %5, i32 0, i32 3
  store i32 0, ptr %9, align 8
  %10 = getelementptr inbounds %class.IndexSetIterator, ptr %5, i32 0, i32 4
  %11 = load ptr, ptr %4, align 8
  %12 = call noundef zeroext i1 @_ZNK8IndexSet8is_emptyEv(ptr noundef nonnull align 8 dereferenceable(160) %11)
  br i1 %12, label %13, label %14

13:                                               ; preds = %2
  br label %18

14:                                               ; preds = %2
  %15 = load ptr, ptr %4, align 8
  %16 = getelementptr inbounds %class.IndexSet, ptr %15, i32 0, i32 1
  %17 = load i32, ptr %16, align 4
  br label %18

18:                                               ; preds = %14, %13
  %19 = phi i32 [ 0, %13 ], [ %17, %14 ]
  store i32 %19, ptr %10, align 4
  %20 = getelementptr inbounds %class.IndexSetIterator, ptr %5, i32 0, i32 5
  store ptr null, ptr %20, align 8
  %21 = getelementptr inbounds %class.IndexSetIterator, ptr %5, i32 0, i32 6
  %22 = load ptr, ptr %4, align 8
  %23 = getelementptr inbounds %class.IndexSet, ptr %22, i32 0, i32 2
  %24 = load ptr, ptr %23, align 8
  store ptr %24, ptr %21, align 8
  %25 = getelementptr inbounds %class.IndexSetIterator, ptr %5, i32 0, i32 7
  %26 = load ptr, ptr %4, align 8
  store ptr %26, ptr %25, align 8
  ret void
}

; Function Attrs: mustprogress nounwind uwtable
define linkonce_odr hidden noundef i32 @_ZNK3LRG8num_regsEv(ptr noundef nonnull align 8 dereferenceable(168) %0) #1 comdat align 2 {
  %2 = alloca ptr, align 8
  store ptr %0, ptr %2, align 8
  %3 = load ptr, ptr %2, align 8
  %4 = getelementptr inbounds %class.LRG, ptr %3, i32 0, i32 12
  %5 = load i16, ptr %4, align 4
  %6 = zext i16 %5 to i32
  ret i32 %6
}

; Function Attrs: mustprogress nounwind uwtable
define linkonce_odr hidden noundef nonnull align 8 dereferenceable(168) ptr @_ZNK8PhaseIFG4lrgsEj(ptr noundef nonnull align 8 dereferenceable(64) %0, i32 noundef %1) #1 comdat align 2 {
  %3 = alloca ptr, align 8
  %4 = alloca i32, align 4
  store ptr %0, ptr %3, align 8
  store i32 %1, ptr %4, align 4
  %5 = load ptr, ptr %3, align 8
  %6 = getelementptr inbounds %class.PhaseIFG, ptr %5, i32 0, i32 3
  %7 = load ptr, ptr %6, align 8
  %8 = load i32, ptr %4, align 4
  %9 = zext i32 %8 to i64
  %10 = getelementptr inbounds %class.LRG, ptr %7, i64 %9
  ret ptr %10
}

; Function Attrs: mustprogress nounwind uwtable
define linkonce_odr hidden noundef zeroext i1 @_ZNK8IndexSet8is_emptyEv(ptr noundef nonnull align 8 dereferenceable(160) %0) #1 comdat align 2 {
  %2 = alloca ptr, align 8
  store ptr %0, ptr %2, align 8
  %3 = load ptr, ptr %2, align 8
  %4 = getelementptr inbounds %class.IndexSet, ptr %3, i32 0, i32 0
  %5 = load i32, ptr %4, align 8
  %6 = icmp eq i32 %5, 0
  ret i1 %6
}

; Function Attrs: mustprogress nounwind uwtable
define linkonce_odr hidden noundef ptr @_ZNK8PhaseIFG9neighborsEj(ptr noundef nonnull align 8 dereferenceable(64) %0, i32 noundef %1) #1 comdat align 2 {
  %3 = alloca ptr, align 8
  %4 = alloca i32, align 4
  store ptr %0, ptr %3, align 8
  store i32 %1, ptr %4, align 4
  %5 = load ptr, ptr %3, align 8
  %6 = getelementptr inbounds %class.PhaseIFG, ptr %5, i32 0, i32 1
  %7 = load ptr, ptr %6, align 8
  %8 = load i32, ptr %4, align 4
  %9 = zext i32 %8 to i64
  %10 = getelementptr inbounds %class.IndexSet, ptr %7, i64 %9
  ret ptr %10
}

; Function Attrs: mustprogress nounwind uwtable
define hidden noundef i32 @_ZNK8PhaseIFG16effective_degreeEj(ptr noundef nonnull align 8 dereferenceable(64) %0, i32 noundef %1) #1 align 2 {
  %3 = alloca i32, align 4
  %4 = alloca ptr, align 8
  %5 = alloca i32, align 4
  %6 = alloca ptr, align 8
  %7 = alloca i32, align 4
  %8 = alloca i32, align 4
  %9 = alloca i32, align 4
  %10 = alloca %class.IndexSetIterator, align 8
  %11 = alloca i32, align 4
  %12 = alloca ptr, align 8
  %13 = alloca i32, align 4
  store ptr %0, ptr %4, align 8
  store i32 %1, ptr %5, align 4
  %14 = load ptr, ptr %4, align 8
  %15 = load i32, ptr %5, align 4
  %16 = call noundef ptr @_ZNK8PhaseIFG9neighborsEj(ptr noundef nonnull align 8 dereferenceable(64) %14, i32 noundef %15)
  store ptr %16, ptr %6, align 8
  %17 = load ptr, ptr %6, align 8
  %18 = call noundef zeroext i1 @_ZNK8IndexSet8is_emptyEv(ptr noundef nonnull align 8 dereferenceable(160) %17)
  br i1 %18, label %19, label %20

19:                                               ; preds = %2
  store i32 0, ptr %3, align 4
  br label %64

20:                                               ; preds = %2
  store i32 0, ptr %7, align 4
  %21 = load i32, ptr %5, align 4
  %22 = call noundef nonnull align 8 dereferenceable(168) ptr @_ZNK8PhaseIFG4lrgsEj(ptr noundef nonnull align 8 dereferenceable(64) %14, i32 noundef %21)
  %23 = call noundef i32 @_ZNK3LRG8num_regsEv(ptr noundef nonnull align 8 dereferenceable(168) %22)
  store i32 %23, ptr %8, align 4
  %24 = load i32, ptr %5, align 4
  %25 = call noundef nonnull align 8 dereferenceable(168) ptr @_ZNK8PhaseIFG4lrgsEj(ptr noundef nonnull align 8 dereferenceable(64) %14, i32 noundef %24)
  %26 = getelementptr inbounds %class.LRG, ptr %25, i32 0, i32 15
  %27 = load i16, ptr %26, align 2
  %28 = lshr i16 %27, 10
  %29 = and i16 %28, 1
  %30 = zext i16 %29 to i32
  store i32 %30, ptr %9, align 4
  %31 = load ptr, ptr %6, align 8
  call void @_ZN16IndexSetIteratorC2EP8IndexSet(ptr noundef nonnull align 8 dereferenceable(48) %10, ptr noundef %31)
  br label %32

32:                                               ; preds = %58, %20
  %33 = call noundef i32 @_ZN16IndexSetIterator4nextEv(ptr noundef nonnull align 8 dereferenceable(48) %10)
  store i32 %33, ptr %11, align 4
  %34 = icmp ne i32 %33, 0
  br i1 %34, label %35, label %62

35:                                               ; preds = %32
  %36 = load i32, ptr %11, align 4
  %37 = call noundef nonnull align 8 dereferenceable(168) ptr @_ZNK8PhaseIFG4lrgsEj(ptr noundef nonnull align 8 dereferenceable(64) %14, i32 noundef %36)
  store ptr %37, ptr %12, align 8
  %38 = load ptr, ptr %12, align 8
  %39 = call noundef i32 @_ZNK3LRG8num_regsEv(ptr noundef nonnull align 8 dereferenceable(168) %38)
  store i32 %39, ptr %13, align 4
  %40 = load i32, ptr %9, align 4
  %41 = icmp ne i32 %40, 0
  br i1 %41, label %50, label %42

42:                                               ; preds = %35
  %43 = load ptr, ptr %12, align 8
  %44 = getelementptr inbounds %class.LRG, ptr %43, i32 0, i32 15
  %45 = load i16, ptr %44, align 2
  %46 = lshr i16 %45, 10
  %47 = and i16 %46, 1
  %48 = zext i16 %47 to i32
  %49 = icmp ne i32 %48, 0
  br i1 %49, label %50, label %54

50:                                               ; preds = %42, %35
  %51 = load i32, ptr %8, align 4
  %52 = load i32, ptr %13, align 4
  %53 = mul nsw i32 %51, %52
  br label %58

54:                                               ; preds = %42
  %55 = load i32, ptr %8, align 4
  %56 = load i32, ptr %13, align 4
  %57 = call noundef i32 @_Z4MAX2IiET_S0_S0_(i32 noundef %55, i32 noundef %56)
  br label %58

58:                                               ; preds = %54, %50
  %59 = phi i32 [ %53, %50 ], [ %57, %54 ]
  %60 = load i32, ptr %7, align 4
  %61 = add nsw i32 %60, %59
  store i32 %61, ptr %7, align 4
  br label %32, !llvm.loop !11

62:                                               ; preds = %32
  %63 = load i32, ptr %7, align 4
  store i32 %63, ptr %3, align 4
  br label %64

64:                                               ; preds = %62, %19
  %65 = load i32, ptr %3, align 4
  ret i32 %65
}