; Function Attrs: mustprogress nounwind uwtable
define hidden noundef i32 @_ZNK8PhaseIFG16effective_degreeEj(ptr nocapture noundef nonnull readonly align 8 dereferenceable(64) %0, i32 noundef %1) local_unnamed_addr #0 align 2 {
  %3 = alloca %class.IndexSetIterator, align 8
  %4 = getelementptr inbounds i8, ptr %0, i64 16
  %5 = load ptr, ptr %4, align 8
  %6 = zext i32 %1 to i64
  %7 = getelementptr inbounds %class.IndexSet, ptr %5, i64 %6
  %8 = load i32, ptr %7, align 8
  %9 = icmp eq i32 %8, 0
  br i1 %9, label %_ZN16IndexSetIterator4nextEv.exit.thread, label %_ZN16IndexSetIteratorC2EP8IndexSet.exit

_ZN16IndexSetIteratorC2EP8IndexSet.exit:          ; preds = %2
  %10 = getelementptr inbounds i8, ptr %0, i64 32
  %11 = load ptr, ptr %10, align 8
  %12 = getelementptr inbounds %class.LRG, ptr %11, i64 %6
  %13 = getelementptr inbounds i8, ptr %12, i64 156
  %14 = load i16, ptr %13, align 4
  %15 = zext i16 %14 to i32
  %16 = getelementptr inbounds i8, ptr %12, i64 166
  %17 = load i16, ptr %16, align 2
  store i64 0, ptr %3, align 8
  %18 = getelementptr inbounds i8, ptr %3, i64 8
  store i32 0, ptr %18, align 8
  %19 = getelementptr inbounds i8, ptr %3, i64 12
  store i32 4, ptr %19, align 4
  %20 = getelementptr inbounds i8, ptr %3, i64 16
  store i32 0, ptr %20, align 8
  %21 = getelementptr inbounds i8, ptr %7, i64 4
  %22 = load i32, ptr %21, align 4
  %23 = getelementptr inbounds i8, ptr %3, i64 20
  store i32 %22, ptr %23, align 4
  %24 = getelementptr inbounds i8, ptr %3, i64 24
  store ptr null, ptr %24, align 8
  %25 = getelementptr inbounds i8, ptr %3, i64 32
  %26 = getelementptr inbounds i8, ptr %7, i64 8
  %27 = load ptr, ptr %26, align 8
  store ptr %27, ptr %25, align 8
  %28 = getelementptr inbounds i8, ptr %3, i64 40
  store ptr %7, ptr %28, align 8
  %.fr22 = freeze i16 %17
  %29 = and i16 %.fr22, 1024
  %.not18 = icmp eq i16 %29, 0
  br i1 %.not18, label %_ZN16IndexSetIteratorC2EP8IndexSet.exit.split.us, label %_ZN16IndexSetIteratorC2EP8IndexSet.exit.split

_ZN16IndexSetIteratorC2EP8IndexSet.exit.split.us: ; preds = %_ZN16IndexSetIteratorC2EP8IndexSet.exit, %47
  %30 = phi i64 [ %.pre24, %47 ], [ 0, %_ZN16IndexSetIteratorC2EP8IndexSet.exit ]
  %.016.us = phi i32 [ %60, %47 ], [ 0, %_ZN16IndexSetIteratorC2EP8IndexSet.exit ]
  %.not.i.us = icmp eq i64 %30, 0
  br i1 %.not.i.us, label %38, label %31

31:                                               ; preds = %_ZN16IndexSetIteratorC2EP8IndexSet.exit.split.us
  %32 = call range(i64 0, 65) i64 @llvm.cttz.i64(i64 %30, i1 true)
  %33 = trunc nuw nsw i64 %32 to i32
  %34 = lshr i64 %30, %32
  %35 = add i64 %34, -1
  store i64 %35, ptr %3, align 8
  %36 = load i32, ptr %18, align 8
  %37 = add i32 %36, %33
  store i32 %37, ptr %18, align 8
  br label %_ZN16IndexSetIterator4nextEv.exit.us

38:                                               ; preds = %_ZN16IndexSetIteratorC2EP8IndexSet.exit.split.us
  %39 = load i32, ptr %19, align 4
  %40 = icmp ult i32 %39, 4
  br i1 %40, label %45, label %41

41:                                               ; preds = %38
  %42 = load i32, ptr %20, align 8
  %43 = load i32, ptr %23, align 4
  %44 = icmp ult i32 %42, %43
  br i1 %44, label %45, label %_ZN16IndexSetIterator4nextEv.exit.thread

45:                                               ; preds = %41, %38
  %46 = call noundef i32 @_ZN16IndexSetIterator16advance_and_nextEv(ptr noundef nonnull align 8 dereferenceable(48) %3) #13
  br label %_ZN16IndexSetIterator4nextEv.exit.us

_ZN16IndexSetIterator4nextEv.exit.us:             ; preds = %45, %31
  %.0.i.us = phi i32 [ %37, %31 ], [ %46, %45 ]
  %.not.us = icmp eq i32 %.0.i.us, 0
  br i1 %.not.us, label %_ZN16IndexSetIterator4nextEv.exit.thread, label %47

47:                                               ; preds = %_ZN16IndexSetIterator4nextEv.exit.us
  %48 = load ptr, ptr %10, align 8
  %49 = zext i32 %.0.i.us to i64
  %50 = getelementptr inbounds %class.LRG, ptr %48, i64 %49
  %51 = getelementptr inbounds i8, ptr %50, i64 156
  %52 = load i16, ptr %51, align 4
  %53 = zext i16 %52 to i32
  %54 = getelementptr inbounds i8, ptr %50, i64 166
  %55 = load i16, ptr %54, align 2
  %56 = and i16 %55, 1024
  %.not19.us = icmp eq i16 %56, 0
  %57 = mul nuw nsw i32 %53, %15
  %58 = call i32 @llvm.smax.i32(i32 %15, i32 %53)
  %59 = select i1 %.not19.us, i32 %58, i32 %57
  %60 = add nuw nsw i32 %59, %.016.us
  %.pre24 = load i64, ptr %3, align 8
  br label %_ZN16IndexSetIteratorC2EP8IndexSet.exit.split.us, !llvm.loop !11

_ZN16IndexSetIteratorC2EP8IndexSet.exit.split:    ; preds = %_ZN16IndexSetIteratorC2EP8IndexSet.exit, %78
  %61 = phi i64 [ %.pre, %78 ], [ 0, %_ZN16IndexSetIteratorC2EP8IndexSet.exit ]
  %.016 = phi i32 [ %85, %78 ], [ 0, %_ZN16IndexSetIteratorC2EP8IndexSet.exit ]
  %.not.i = icmp eq i64 %61, 0
  br i1 %.not.i, label %69, label %62

62:                                               ; preds = %_ZN16IndexSetIteratorC2EP8IndexSet.exit.split
  %63 = call range(i64 0, 65) i64 @llvm.cttz.i64(i64 %61, i1 true)
  %64 = trunc nuw nsw i64 %63 to i32
  %65 = lshr i64 %61, %63
  %66 = add i64 %65, -1
  store i64 %66, ptr %3, align 8
  %67 = load i32, ptr %18, align 8
  %68 = add i32 %67, %64
  store i32 %68, ptr %18, align 8
  br label %_ZN16IndexSetIterator4nextEv.exit

69:                                               ; preds = %_ZN16IndexSetIteratorC2EP8IndexSet.exit.split
  %70 = load i32, ptr %19, align 4
  %71 = icmp ult i32 %70, 4
  br i1 %71, label %76, label %72

72:                                               ; preds = %69
  %73 = load i32, ptr %20, align 8
  %74 = load i32, ptr %23, align 4
  %75 = icmp ult i32 %73, %74
  br i1 %75, label %76, label %_ZN16IndexSetIterator4nextEv.exit.thread

76:                                               ; preds = %72, %69
  %77 = call noundef i32 @_ZN16IndexSetIterator16advance_and_nextEv(ptr noundef nonnull align 8 dereferenceable(48) %3) #13
  br label %_ZN16IndexSetIterator4nextEv.exit

_ZN16IndexSetIterator4nextEv.exit:                ; preds = %62, %76
  %.0.i = phi i32 [ %68, %62 ], [ %77, %76 ]
  %.not = icmp eq i32 %.0.i, 0
  br i1 %.not, label %_ZN16IndexSetIterator4nextEv.exit.thread, label %78

78:                                               ; preds = %_ZN16IndexSetIterator4nextEv.exit
  %79 = load ptr, ptr %10, align 8
  %80 = zext i32 %.0.i to i64
  %81 = getelementptr inbounds %class.LRG, ptr %79, i64 %80, i32 12
  %82 = load i16, ptr %81, align 4
  %83 = zext i16 %82 to i32
  %84 = mul nuw nsw i32 %83, %15
  %85 = add nuw nsw i32 %84, %.016
  %.pre = load i64, ptr %3, align 8
  br label %_ZN16IndexSetIteratorC2EP8IndexSet.exit.split, !llvm.loop !11

_ZN16IndexSetIterator4nextEv.exit.thread:         ; preds = %_ZN16IndexSetIterator4nextEv.exit, %72, %_ZN16IndexSetIterator4nextEv.exit.us, %41, %2
  %.0 = phi i32 [ 0, %2 ], [ %.016.us, %41 ], [ %.016.us, %_ZN16IndexSetIterator4nextEv.exit.us ], [ %.016, %72 ], [ %.016, %_ZN16IndexSetIterator4nextEv.exit ]
  ret i32 %.0
}